target datalayout = "e-m:e-p270:32:32-p271:32:32-p272:64:64-i64:64-i128:128-f80:128-n8:16:32:64-S128"
target triple = "x86_64-unknown-linux-gnu"

%"class.icu_75::SearchIterator" = type { %"class.icu_75::UObject", ptr, ptr, %"class.icu_75::UnicodeString" }
%"class.icu_75::UObject" = type { ptr }
%"class.icu_75::UnicodeString" = type { %"class.icu_75::Replaceable", %"union.icu_75::UnicodeString::StackBufferOrFields" }
%"class.icu_75::Replaceable" = type { %"class.icu_75::UObject" }
%"union.icu_75::UnicodeString::StackBufferOrFields" = type { %struct.anon.0, [32 x i8] }
%struct.anon.0 = type { i16, i32, i32, ptr }
%struct.USearch = type { ptr, i32, i8, i8, i16, ptr, ptr, i32, i32, i8, i8 }

; Function Attrs: mustprogress nounwind uwtable
define internal noundef signext i8 @_ZL9U_SUCCESS10UErrorCode(i32 noundef %code) #1 {
entry:
  %code.addr = alloca i32, align 4
  store i32 %code, ptr %code.addr, align 4
  %0 = load i32, ptr %code.addr, align 4
  %cmp = icmp sle i32 %0, 0
  %conv = zext i1 %cmp to i8
  ret i8 %conv
}

; Function Attrs: mustprogress uwtable
define void @_ZN6icu_7514SearchIterator16setBreakIteratorEPNS_13BreakIteratorER10UErrorCode(ptr noundef nonnull align 8 dereferenceable(88) %this, ptr noundef %breakiter, ptr noundef nonnull align 4 dereferenceable(4) %status) #0 align 2 {
entry:
  %this.addr = alloca ptr, align 8
  %breakiter.addr = alloca ptr, align 8
  %status.addr = alloca ptr, align 8
  store ptr %this, ptr %this.addr, align 8
  store ptr %breakiter, ptr %breakiter.addr, align 8
  store ptr %status, ptr %status.addr, align 8
  %this1 = load ptr, ptr %this.addr, align 8
  %0 = load ptr, ptr %status.addr, align 8
  %1 = load i32, ptr %0, align 4
  %call = call noundef signext i8 @_ZL9U_SUCCESS10UErrorCode(i32 noundef %1)
  %tobool = icmp ne i8 %call, 0
  br i1 %tobool, label %if.then, label %if.end

if.then:                                          ; preds = %entry
  %2 = load ptr, ptr %breakiter.addr, align 8
  %m_search_ = getelementptr inbounds %"class.icu_75::SearchIterator", ptr %this1, i32 0, i32 1
  %3 = load ptr, ptr %m_search_, align 8
  %breakIter = getelementptr inbounds %struct.USearch, ptr %3, i32 0, i32 6
  store ptr %2, ptr %breakIter, align 8
  %4 = load ptr, ptr %breakiter.addr, align 8
  %m_breakiterator_ = getelementptr inbounds %"class.icu_75::SearchIterator", ptr %this1, i32 0, i32 2
  store ptr %4, ptr %m_breakiterator_, align 8
  br label %if.end

if.end:                                           ; preds = %if.then, %entry
  ret void
}