; Function Attrs: mustprogress nofree norecurse nosync nounwind willreturn memory(write, argmem: readwrite, inaccessiblemem: none) uwtable
define void @_ZN6icu_7514SearchIterator16setBreakIteratorEPNS_13BreakIteratorER10UErrorCode(ptr nocapture noundef nonnull align 8 dereferenceable(88) %this, ptr noundef %breakiter, ptr nocapture noundef nonnull readonly align 4 dereferenceable(4) %status) local_unnamed_addr #8 align 2 {
entry:
  %0 = load i32, ptr %status, align 4
  %cmp.i = icmp sgt i32 %0, 0
  br i1 %cmp.i, label %if.end, label %if.then

if.then:                                          ; preds = %entry
  %m_search_ = getelementptr inbounds i8, ptr %this, i64 8
  %1 = load ptr, ptr %m_search_, align 8
  %breakIter = getelementptr inbounds i8, ptr %1, i64 24
  store ptr %breakiter, ptr %breakIter, align 8
  %m_breakiterator_ = getelementptr inbounds i8, ptr %this, i64 16
  store ptr %breakiter, ptr %m_breakiterator_, align 8
  br label %if.end

if.end:                                           ; preds = %if.then, %entry
  ret void
}